target datalayout = "e-m:e-p270:32:32-p271:32:32-p272:64:64-i64:64-i128:128-f80:128-n8:16:32:64-S128"
target triple = "x86_64-pc-linux-gnu"

%struct.ARGON2_POS = type { i32, i32, i8, i32 }
%struct.ARGON2_THREAD_DATA = type { %struct.ARGON2_POS, ptr }

; Function Attrs: nounwind uwtable
define internal i32 @fill_segment_thr(ptr noundef %0) #0 {
  %2 = alloca ptr, align 8
  %3 = alloca ptr, align 8
  store ptr %0, ptr %2, align 8, !tbaa !3
  call void @llvm.lifetime.start.p0(i64 8, ptr %3) #6
  %4 = load ptr, ptr %2, align 8, !tbaa !3
  store ptr %4, ptr %3, align 8, !tbaa !3
  %5 = load ptr, ptr %3, align 8, !tbaa !3
  %6 = getelementptr inbounds nuw %struct.ARGON2_THREAD_DATA, ptr %5, i32 0, i32 1
  %7 = load ptr, ptr %6, align 8, !tbaa !70
  %8 = load ptr, ptr %3, align 8, !tbaa !3
  %9 = getelementptr inbounds nuw %struct.ARGON2_THREAD_DATA, ptr %8, i32 0, i32 0
  %10 = getelementptr inbounds nuw %struct.ARGON2_POS, ptr %9, i32 0, i32 0
  %11 = load i32, ptr %10, align 8, !tbaa !83
  %12 = load ptr, ptr %3, align 8, !tbaa !3
  %13 = getelementptr inbounds nuw %struct.ARGON2_THREAD_DATA, ptr %12, i32 0, i32 0
  %14 = getelementptr inbounds nuw %struct.ARGON2_POS, ptr %13, i32 0, i32 1
  %15 = load i32, ptr %14, align 4, !tbaa !84
  %16 = load ptr, ptr %3, align 8, !tbaa !3
  %17 = getelementptr inbounds nuw %struct.ARGON2_THREAD_DATA, ptr %16, i32 0, i32 0
  %18 = getelementptr inbounds nuw %struct.ARGON2_POS, ptr %17, i32 0, i32 2
  %19 = load i8, ptr %18, align 8, !tbaa !85
  call void @fill_segment(ptr noundef %7, i32 noundef %11, i32 noundef %15, i8 noundef zeroext %19)
  call void @llvm.lifetime.end.p0(i64 8, ptr %3) #6
  ret i32 0
}